; Function Attrs: nounwind uwtable
define internal range(i32 0, 2) i32 @kdf_hkdf_set_ctx_params(ptr noundef %0, ptr noundef %1) #0 {
  %3 = icmp eq ptr %1, null
  br i1 %3, label %ossl_param_is_empty.exit.thread, label %ossl_param_is_empty.exit

ossl_param_is_empty.exit:                         ; preds = %2
  %4 = load ptr, ptr %1, align 8, !tbaa !27
  %.not = icmp eq ptr %4, null
  br i1 %.not, label %ossl_param_is_empty.exit.thread, label %5

5:                                                ; preds = %ossl_param_is_empty.exit
  %6 = tail call fastcc i32 @hkdf_common_set_ctx_params(ptr noundef %0, ptr noundef nonnull %1)
  %.not7 = icmp eq i32 %6, 0
  br i1 %.not7, label %ossl_param_is_empty.exit.thread, label %7

7:                                                ; preds = %5
  %8 = getelementptr inbounds nuw i8, ptr %0, i64 120
  %9 = getelementptr inbounds nuw i8, ptr %0, i64 128
  %10 = tail call i32 @ossl_param_get1_concat_octet_string(ptr noundef nonnull %1, ptr noundef nonnull @.str.7, ptr noundef nonnull %8, ptr noundef nonnull %9, i64 noundef 32768) #7
  %11 = icmp ne i32 %10, 0
  %. = zext i1 %11 to i32
  br label %ossl_param_is_empty.exit.thread

ossl_param_is_empty.exit.thread:                  ; preds = %2, %7, %5, %ossl_param_is_empty.exit
  %.0 = phi i32 [ 1, %ossl_param_is_empty.exit ], [ 0, %5 ], [ %., %7 ], [ 1, %2 ]
  ret i32 %.0
}